target datalayout = "e-m:e-p270:32:32-p271:32:32-p272:64:64-i64:64-i128:128-f80:128-n8:16:32:64-S128"
target triple = "x86_64-unknown-linux-gnu"

%"struct.std::_Vector_base" = type { %"struct.std::_Vector_base<arrow::TypeHolder, std::allocator<arrow::TypeHolder>>::_Vector_impl" }
%"struct.std::_Vector_base<arrow::TypeHolder, std::allocator<arrow::TypeHolder>>::_Vector_impl" = type { %"struct.std::_Vector_base<arrow::TypeHolder, std::allocator<arrow::TypeHolder>>::_Vector_impl_data" }
%"struct.std::_Vector_base<arrow::TypeHolder, std::allocator<arrow::TypeHolder>>::_Vector_impl_data" = type { ptr, ptr, ptr }
%"class.std::vector" = type { %"struct.std::_Vector_base" }
%"class.std::unique_ptr.113" = type { %"struct.std::__uniq_ptr_data.114" }
%"struct.std::__uniq_ptr_data.114" = type { %"class.std::__uniq_ptr_impl.115" }
%"class.std::__uniq_ptr_impl.115" = type { %"class.std::tuple.116" }
%"class.std::tuple.116" = type { %"struct.std::_Tuple_impl.117" }
%"struct.std::_Tuple_impl.117" = type { %"struct.std::_Head_base.120" }
%"struct.std::_Head_base.120" = type { ptr }
%"struct.arrow::compute::(anonymous namespace)::AnyKeysSegmenter" = type <{ %"struct.arrow::compute::(anonymous namespace)::BaseRowSegmenter", ptr, %"class.std::unique_ptr.113", i32, [4 x i8] }>
%"struct.arrow::compute::(anonymous namespace)::BaseRowSegmenter" = type { %"class.arrow::compute::RowSegmenter", %"class.std::vector" }
%"class.arrow::compute::RowSegmenter" = type { ptr }
%class.anon = type <{ ptr, i32, [4 x i8] }>

; Function Attrs: mustprogress nounwind uwtable
define internal noundef zeroext i1 @_ZN5arrow7compute12_GLOBAL__N_116AnyKeysSegmenter6ExtendEPKv(ptr noundef nonnull align 8 dereferenceable(52) %this, ptr noundef %data) #2 align 2 {
entry:
  %this.addr = alloca ptr, align 8
  %data.addr = alloca ptr, align 8
  %group_id = alloca i32, align 4
  %extends = alloca i8, align 1
  store ptr %this, ptr %this.addr, align 8
  store ptr %data, ptr %data.addr, align 8
  %this1 = load ptr, ptr %this.addr, align 8
  %0 = load ptr, ptr %data.addr, align 8
  %1 = load i32, ptr %0, align 4
  store i32 %1, ptr %group_id, align 4
  %save_group_id_ = getelementptr inbounds %"struct.arrow::compute::(anonymous namespace)::AnyKeysSegmenter", ptr %this1, i32 0, i32 3
  %2 = load i32, ptr %save_group_id_, align 8
  %cmp = icmp eq i32 %2, -1
  br i1 %cmp, label %cond.true, label %cond.false

cond.true:                                        ; preds = %entry
  br label %cond.end

cond.false:                                       ; preds = %entry
  %save_group_id_2 = getelementptr inbounds %"struct.arrow::compute::(anonymous namespace)::AnyKeysSegmenter", ptr %this1, i32 0, i32 3
  %3 = load i32, ptr %save_group_id_2, align 8
  %4 = load i32, ptr %group_id, align 4
  %cmp3 = icmp eq i32 %3, %4
  br label %cond.end

cond.end:                                         ; preds = %cond.false, %cond.true
  %cond = phi i1 [ true, %cond.true ], [ %cmp3, %cond.false ]
  %frombool = zext i1 %cond to i8
  store i8 %frombool, ptr %extends, align 1
  %5 = load i32, ptr %group_id, align 4
  %save_group_id_4 = getelementptr inbounds %"struct.arrow::compute::(anonymous namespace)::AnyKeysSegmenter", ptr %this1, i32 0, i32 3
  store i32 %5, ptr %save_group_id_4, align 8
  %6 = load i8, ptr %extends, align 1
  %tobool = trunc i8 %6 to i1
  ret i1 %tobool
}

; Function Attrs: mustprogress uwtable
define internal noundef zeroext i1 @_ZZN5arrow7compute12_GLOBAL__N_116AnyKeysSegmenter14GetNextSegmentERKNS0_8ExecSpanElENKUlPKvE_clES7_(ptr noundef nonnull align 8 dereferenceable(12) %this, ptr noundef %data) #1 align 2 {
entry:
  %this.addr = alloca ptr, align 8
  %data.addr = alloca ptr, align 8
  %extends = alloca i8, align 1
  store ptr %this, ptr %this.addr, align 8
  store ptr %data, ptr %data.addr, align 8
  %this1 = load ptr, ptr %this.addr, align 8
  %0 = getelementptr inbounds %class.anon, ptr %this1, i32 0, i32 0
  %1 = load ptr, ptr %0, align 8
  %2 = getelementptr inbounds %class.anon, ptr %this1, i32 0, i32 1
  %call = call noundef zeroext i1 @_ZN5arrow7compute12_GLOBAL__N_116AnyKeysSegmenter6ExtendEPKv(ptr noundef nonnull align 8 dereferenceable(52) %1, ptr noundef %2)
  %frombool = zext i1 %call to i8
  store i8 %frombool, ptr %extends, align 1
  %3 = load ptr, ptr %data.addr, align 8
  %4 = load i32, ptr %3, align 4
  %save_group_id_ = getelementptr inbounds %"struct.arrow::compute::(anonymous namespace)::AnyKeysSegmenter", ptr %1, i32 0, i32 3
  store i32 %4, ptr %save_group_id_, align 8
  %5 = load i8, ptr %extends, align 1
  %tobool = trunc i8 %5 to i1
  ret i1 %tobool
}

; Function Attrs: mustprogress nounwind uwtable
define linkonce_odr noundef ptr @_ZNKSt9_Any_data9_M_accessEv(ptr noundef nonnull align 8 dereferenceable(16) %this) #2 comdat align 2 {
entry:
  %this.addr = alloca ptr, align 8
  store ptr %this, ptr %this.addr, align 8
  %this1 = load ptr, ptr %this.addr, align 8
  %arrayidx = getelementptr inbounds [16 x i8], ptr %this1, i64 0, i64 0
  ret ptr %arrayidx
}

; Function Attrs: mustprogress uwtable
define internal noundef zeroext i1 @_ZSt13__invoke_implIbRZN5arrow7compute12_GLOBAL__N_116AnyKeysSegmenter14GetNextSegmentERKNS1_8ExecSpanElEUlPKvE_JS8_EET_St14__invoke_otherOT0_DpOT1_(ptr noundef nonnull align 8 dereferenceable(12) %__f, ptr noundef nonnull align 8 dereferenceable(8) %__args) #1 {
entry:
  %__f.addr = alloca ptr, align 8
  %__args.addr = alloca ptr, align 8
  store ptr %__f, ptr %__f.addr, align 8
  store ptr %__args, ptr %__args.addr, align 8
  %0 = load ptr, ptr %__f.addr, align 8
  %1 = load ptr, ptr %__args.addr, align 8
  %2 = load ptr, ptr %1, align 8
  %call = call noundef zeroext i1 @_ZZN5arrow7compute12_GLOBAL__N_116AnyKeysSegmenter14GetNextSegmentERKNS0_8ExecSpanElENKUlPKvE_clES7_(ptr noundef nonnull align 8 dereferenceable(12) %0, ptr noundef %2)
  ret i1 %call
}

; Function Attrs: mustprogress nounwind uwtable
define internal noundef nonnull align 8 dereferenceable(12) ptr @_ZNKSt9_Any_data9_M_accessIZN5arrow7compute12_GLOBAL__N_116AnyKeysSegmenter14GetNextSegmentERKNS2_8ExecSpanElEUlPKvE_EERKT_v(ptr noundef nonnull align 8 dereferenceable(16) %this) #2 align 2 {
entry:
  %this.addr = alloca ptr, align 8
  store ptr %this, ptr %this.addr, align 8
  %this1 = load ptr, ptr %this.addr, align 8
  %call = call noundef ptr @_ZNKSt9_Any_data9_M_accessEv(ptr noundef nonnull align 8 dereferenceable(16) %this1) #3
  ret ptr %call
}

; Function Attrs: mustprogress uwtable
define internal noundef zeroext i1 @_ZSt10__invoke_rIbRZN5arrow7compute12_GLOBAL__N_116AnyKeysSegmenter14GetNextSegmentERKNS1_8ExecSpanElEUlPKvE_JS8_EENSt9enable_ifIX16is_invocable_r_vIT_T0_DpT1_EESC_E4typeEOSD_DpOSE_(ptr noundef nonnull align 8 dereferenceable(12) %__fn, ptr noundef nonnull align 8 dereferenceable(8) %__args) #1 {
entry:
  %__fn.addr = alloca ptr, align 8
  %__args.addr = alloca ptr, align 8
  store ptr %__fn, ptr %__fn.addr, align 8
  store ptr %__args, ptr %__args.addr, align 8
  %0 = load ptr, ptr %__fn.addr, align 8
  %1 = load ptr, ptr %__args.addr, align 8
  %call = call noundef zeroext i1 @_ZSt13__invoke_implIbRZN5arrow7compute12_GLOBAL__N_116AnyKeysSegmenter14GetNextSegmentERKNS1_8ExecSpanElEUlPKvE_JS8_EET_St14__invoke_otherOT0_DpOT1_(ptr noundef nonnull align 8 dereferenceable(12) %0, ptr noundef nonnull align 8 dereferenceable(8) %1)
  ret i1 %call
}

; Function Attrs: mustprogress nounwind uwtable
define internal noundef ptr @_ZNSt14_Function_base13_Base_managerIZN5arrow7compute12_GLOBAL__N_116AnyKeysSegmenter14GetNextSegmentERKNS2_8ExecSpanElEUlPKvE_E14_M_get_pointerERKSt9_Any_data(ptr noundef nonnull align 8 dereferenceable(16) %__source) #2 align 2 {
entry:
  %__source.addr = alloca ptr, align 8
  %__f = alloca ptr, align 8
  store ptr %__source, ptr %__source.addr, align 8
  %0 = load ptr, ptr %__source.addr, align 8
  %call = call noundef nonnull align 8 dereferenceable(12) ptr @_ZNKSt9_Any_data9_M_accessIZN5arrow7compute12_GLOBAL__N_116AnyKeysSegmenter14GetNextSegmentERKNS2_8ExecSpanElEUlPKvE_EERKT_v(ptr noundef nonnull align 8 dereferenceable(16) %0) #3
  store ptr %call, ptr %__f, align 8
  %1 = load ptr, ptr %__f, align 8
  ret ptr %1
}

; Function Attrs: mustprogress uwtable
define internal noundef zeroext i1 @_ZNSt17_Function_handlerIFbPKvEZN5arrow7compute12_GLOBAL__N_116AnyKeysSegmenter14GetNextSegmentERKNS4_8ExecSpanElEUlS1_E_E9_M_invokeERKSt9_Any_dataOS1_(ptr noundef nonnull align 8 dereferenceable(16) %__functor, ptr noundef nonnull align 8 dereferenceable(8) %__args) #1 align 2 {
entry:
  %__functor.addr = alloca ptr, align 8
  %__args.addr = alloca ptr, align 8
  store ptr %__functor, ptr %__functor.addr, align 8
  store ptr %__args, ptr %__args.addr, align 8
  %0 = load ptr, ptr %__functor.addr, align 8
  %call = call noundef ptr @_ZNSt14_Function_base13_Base_managerIZN5arrow7compute12_GLOBAL__N_116AnyKeysSegmenter14GetNextSegmentERKNS2_8ExecSpanElEUlPKvE_E14_M_get_pointerERKSt9_Any_data(ptr noundef nonnull align 8 dereferenceable(16) %0) #3
  %1 = load ptr, ptr %__args.addr, align 8
  %call1 = call noundef zeroext i1 @_ZSt10__invoke_rIbRZN5arrow7compute12_GLOBAL__N_116AnyKeysSegmenter14GetNextSegmentERKNS1_8ExecSpanElEUlPKvE_JS8_EENSt9enable_ifIX16is_invocable_r_vIT_T0_DpT1_EESC_E4typeEOSD_DpOSE_(ptr noundef nonnull align 8 dereferenceable(12) %call, ptr noundef nonnull align 8 dereferenceable(8) %1)
  ret i1 %call1
}