; Function Attrs: mustprogress nofree norecurse nosync nounwind willreturn memory(readwrite, inaccessiblemem: none) uwtable
define internal noundef zeroext i1 @_ZNSt17_Function_handlerIFbPKvEZN5arrow7compute12_GLOBAL__N_116AnyKeysSegmenter14GetNextSegmentERKNS4_8ExecSpanElEUlS1_E_E9_M_invokeERKSt9_Any_dataOS1_(ptr nocapture noundef nonnull readonly align 8 dereferenceable(16) %__functor, ptr nocapture noundef nonnull readonly align 8 dereferenceable(8) %__args) #14 align 2 {
entry:
  %call.val = load ptr, ptr %__functor, align 8
  %0 = getelementptr inbounds i8, ptr %__functor, i64 8
  %call.val1 = load i32, ptr %0, align 8
  %__args.val = load ptr, ptr %__args, align 8
  %save_group_id_.i.i.i.i = getelementptr inbounds i8, ptr %call.val, i64 48
  %1 = load i32, ptr %save_group_id_.i.i.i.i, align 8
  %cmp.i.i.i.i = icmp eq i32 %1, -1
  %cmp3.i.i.i.i = icmp eq i32 %1, %call.val1
  %spec.select.i.i.i.i = select i1 %cmp.i.i.i.i, i1 true, i1 %cmp3.i.i.i.i
  store i32 %call.val1, ptr %save_group_id_.i.i.i.i, align 8
  %2 = load i32, ptr %__args.val, align 4
  store i32 %2, ptr %save_group_id_.i.i.i.i, align 8
  ret i1 %spec.select.i.i.i.i
}